target datalayout = "e-m:e-p270:32:32-p271:32:32-p272:64:64-i64:64-i128:128-f80:128-n8:16:32:64-S128"
target triple = "x86_64-pc-linux-gnu"

%struct.oidset = type { %struct.kh_oid_set }
%struct.kh_oid_set = type { i32, i32, i32, i32, ptr, ptr, ptr }
%struct.object_id = type { [32 x i8], i32 }
%struct.packed_git = type { %struct.hashmap_entry, ptr, %struct.list_head, ptr, i64, ptr, i64, i32, i64, %struct.oidset, i32, i64, i32, i32, i8, [32 x i8], ptr, ptr, ptr, i64, ptr, i64, ptr, [0 x i8] }
%struct.hashmap_entry = type { ptr, i32 }
%struct.list_head = type { ptr, ptr }
%struct.object_info = type { ptr, ptr, ptr, ptr, ptr, ptr, i32, %union.anon }
%union.anon = type { %struct.anon }
%struct.anon = type { ptr, i64, i32 }
%struct.object = type { i32, %struct.object_id }

@the_repository = external global ptr, align 8
@.str.1 = private unnamed_addr constant [23 x i8] c"builtin/pack-objects.c\00", align 1
@.str.195 = private unnamed_addr constant [61 x i8] c"should_include_obj should only be called on existing objects\00", align 1

; Function Attrs: nounwind uwtable
define internal i32 @is_not_in_promisor_pack_obj(ptr noundef %0, ptr noundef %1) #0 {
  %3 = alloca ptr, align 8
  %4 = alloca ptr, align 8
  %5 = alloca %struct.object_info, align 8
  store ptr %0, ptr %3, align 8, !tbaa !171
  store ptr %1, ptr %4, align 8, !tbaa !134
  call void @llvm.lifetime.start.p0(i64 80, ptr %5) #11
  call void @llvm.memset.p0.i64(ptr align 8 %5, i8 0, i64 80, i1 false)
  %6 = load ptr, ptr @the_repository, align 8, !tbaa !11
  %7 = load ptr, ptr %3, align 8, !tbaa !171
  %8 = getelementptr inbounds nuw %struct.object, ptr %7, i32 0, i32 1
  %9 = call i32 @oid_object_info_extended(ptr noundef %6, ptr noundef %8, ptr noundef %5, i32 noundef 0)
  %10 = icmp ne i32 %9, 0
  br i1 %10, label %11, label %12

11:                                               ; preds = %2
  call void (ptr, i32, ptr, ...) @BUG_fl(ptr noundef @.str.1, i32 noundef 4318, ptr noundef @.str.195) #12
  unreachable

12:                                               ; preds = %2
  %13 = getelementptr inbounds nuw %struct.object_info, ptr %5, i32 0, i32 6
  %14 = load i32, ptr %13, align 8, !tbaa !173
  %15 = icmp ne i32 %14, 2
  br i1 %15, label %27, label %16

16:                                               ; preds = %12
  %17 = getelementptr inbounds nuw %struct.object_info, ptr %5, i32 0, i32 7
  %18 = getelementptr inbounds nuw %struct.anon, ptr %17, i32 0, i32 0
  %19 = load ptr, ptr %18, align 8, !tbaa !26
  %20 = getelementptr inbounds nuw %struct.packed_git, ptr %19, i32 0, i32 14
  %21 = load i8, ptr %20, align 8
  %22 = lshr i8 %21, 5
  %23 = and i8 %22, 1
  %24 = zext i8 %23 to i32
  %25 = icmp ne i32 %24, 0
  %26 = xor i1 %25, true
  br label %27

27:                                               ; preds = %16, %12
  %28 = phi i1 [ true, %12 ], [ %26, %16 ]
  %29 = zext i1 %28 to i32
  call void @llvm.lifetime.end.p0(i64 80, ptr %5) #11
  ret i32 %29
}

; Function Attrs: nounwind uwtable
define internal i32 @is_not_in_promisor_pack(ptr noundef %0, ptr noundef %1) #0 {
  %3 = alloca ptr, align 8
  %4 = alloca ptr, align 8
  store ptr %0, ptr %3, align 8, !tbaa !169
  store ptr %1, ptr %4, align 8, !tbaa !134
  %5 = load ptr, ptr %3, align 8, !tbaa !169
  %6 = load ptr, ptr %4, align 8, !tbaa !134
  %7 = call i32 @is_not_in_promisor_pack_obj(ptr noundef %5, ptr noundef %6)
  ret i32 %7
}