; Function Attrs: nounwind uwtable
define internal range(i32 0, 2) i32 @is_not_in_promisor_pack(ptr noundef %0, ptr readnone captures(none) %1) #0 {
  %3 = alloca %struct.object_info, align 8
  call void @llvm.lifetime.start.p0(i64 80, ptr nonnull %3) #25
  call void @llvm.memset.p0.i64(ptr noundef nonnull align 8 dereferenceable(80) %3, i8 0, i64 80, i1 false)
  %4 = load ptr, ptr @the_repository, align 8, !tbaa !4
  %5 = getelementptr inbounds nuw i8, ptr %0, i64 4
  %6 = call i32 @oid_object_info_extended(ptr noundef %4, ptr noundef nonnull %5, ptr noundef nonnull %3, i32 noundef 0) #25
  %.not.i = icmp eq i32 %6, 0
  br i1 %.not.i, label %8, label %7

7:                                                ; preds = %2
  call void (ptr, i32, ptr, ...) @BUG_fl(ptr noundef nonnull @.str.1, i32 noundef 4318, ptr noundef nonnull @.str.195) #26
  unreachable

8:                                                ; preds = %2
  %9 = getelementptr inbounds nuw i8, ptr %3, i64 48
  %10 = load i32, ptr %9, align 8, !tbaa !280
  %.not1.i = icmp eq i32 %10, 2
  br i1 %.not1.i, label %11, label %is_not_in_promisor_pack_obj.exit

11:                                               ; preds = %8
  %12 = getelementptr inbounds nuw i8, ptr %3, i64 56
  %13 = load ptr, ptr %12, align 8, !tbaa !29
  %14 = getelementptr inbounds nuw i8, ptr %13, i64 152
  %15 = load i8, ptr %14, align 8
  %16 = and i8 %15, 32
  %.not2.i = icmp eq i8 %16, 0
  %17 = zext i1 %.not2.i to i32
  br label %is_not_in_promisor_pack_obj.exit

is_not_in_promisor_pack_obj.exit:                 ; preds = %8, %11
  %18 = phi i32 [ 1, %8 ], [ %17, %11 ]
  call void @llvm.lifetime.end.p0(i64 80, ptr nonnull %3) #25
  ret i32 %18
}